; Function Attrs: mustprogress uwtable
define i64 @_ZN10open_spiel10kriegspiel12GetCheckTypeERKNS_5chess10ChessBoardE(ptr noundef nonnull align 8 dereferenceable(168) %0) local_unnamed_addr #4 personality ptr @__gxx_personality_v0 {
  %2 = alloca %"struct.std::pair.6", align 8
  %3 = alloca %"struct.open_spiel::chess_common::Square", align 2
  %4 = alloca %"struct.open_spiel::chess::Piece", align 1
  %5 = alloca %"class.std::function.9", align 8
  %6 = getelementptr inbounds nuw i8, ptr %0, i64 134
  %7 = load i8, ptr %6, align 2
  store i8 %7, ptr %4, align 1
  %8 = getelementptr inbounds nuw i8, ptr %4, i64 1
  store i8 1, ptr %8, align 1
  %9 = call i16 @_ZNK10open_spiel5chess10ChessBoard4findERKNS0_5PieceE(ptr noundef nonnull align 8 dereferenceable(168) %0, ptr noundef nonnull align 1 dereferenceable(2) %4)
  store i16 %9, ptr %3, align 2
  store i32 0, ptr %2, align 8
  %10 = getelementptr inbounds nuw i8, ptr %2, i64 4
  store i32 0, ptr %10, align 4
  %11 = getelementptr inbounds nuw i8, ptr %5, i64 16
  %12 = getelementptr inbounds nuw i8, ptr %5, i64 24
  %13 = getelementptr inbounds nuw i8, ptr %5, i64 8
  store i64 0, ptr %13, align 8
  %14 = call noalias noundef nonnull dereferenceable(24) ptr @_Znwm(i64 noundef 24) #30
  store ptr %3, ptr %14, align 16
  %.sroa.2.0..sroa_idx = getelementptr inbounds nuw i8, ptr %14, i64 8
  store ptr %2, ptr %.sroa.2.0..sroa_idx, align 8
  %.sroa.3.0..sroa_idx = getelementptr inbounds nuw i8, ptr %14, i64 16
  store ptr %0, ptr %.sroa.3.0..sroa_idx, align 16
  store ptr %14, ptr %5, align 8
  store ptr @"_ZNSt17_Function_handlerIFbRKN10open_spiel5chess4MoveEEZNS0_10kriegspiel12GetCheckTypeERKNS1_10ChessBoardEE3$_0E9_M_invokeERKSt9_Any_dataS4_", ptr %12, align 8
  store ptr @"_ZNSt17_Function_handlerIFbRKN10open_spiel5chess4MoveEEZNS0_10kriegspiel12GetCheckTypeERKNS1_10ChessBoardEE3$_0E10_M_managerERSt9_Any_dataRKSC_St18_Manager_operation", ptr %11, align 8
  %15 = load i8, ptr %6, align 2
  invoke void @_ZNK10open_spiel5chess10ChessBoard24GeneratePseudoLegalMovesERKSt8functionIFbRKNS0_4MoveEEENS0_5ColorENS0_23PseudoLegalMoveSettingsE(ptr noundef nonnull align 8 dereferenceable(168) %0, ptr noundef nonnull align 8 dereferenceable(32) %5, i8 noundef signext %15, i32 noundef 0)
          to label %16 unwind label %24

16:                                               ; preds = %1
  %17 = load ptr, ptr %11, align 8
  %.not.i.i = icmp eq ptr %17, null
  br i1 %.not.i.i, label %_ZNSt8functionIFbRKN10open_spiel5chess4MoveEEED2Ev.exit, label %18

18:                                               ; preds = %16
  %19 = invoke noundef zeroext i1 %17(ptr noundef nonnull align 8 dereferenceable(32) %5, ptr noundef nonnull align 8 dereferenceable(32) %5, i32 noundef 3)
          to label %_ZNSt8functionIFbRKN10open_spiel5chess4MoveEEED2Ev.exit unwind label %20

20:                                               ; preds = %18
  %21 = landingpad { ptr, i32 }
          catch ptr null
  %22 = extractvalue { ptr, i32 } %21, 0
  call void @__clang_call_terminate(ptr %22) #29
  unreachable

_ZNSt8functionIFbRKN10open_spiel5chess4MoveEEED2Ev.exit: ; preds = %16, %18
  %23 = load i64, ptr %2, align 8
  ret i64 %23

24:                                               ; preds = %1
  %25 = landingpad { ptr, i32 }
          cleanup
  %26 = load ptr, ptr %11, align 8
  %.not.i.i6 = icmp eq ptr %26, null
  br i1 %.not.i.i6, label %_ZNSt8functionIFbRKN10open_spiel5chess4MoveEEED2Ev.exit7, label %27

27:                                               ; preds = %24
  %28 = invoke noundef zeroext i1 %26(ptr noundef nonnull align 8 dereferenceable(32) %5, ptr noundef nonnull align 8 dereferenceable(32) %5, i32 noundef 3)
          to label %_ZNSt8functionIFbRKN10open_spiel5chess4MoveEEED2Ev.exit7 unwind label %29

29:                                               ; preds = %27
  %30 = landingpad { ptr, i32 }
          catch ptr null
  %31 = extractvalue { ptr, i32 } %30, 0
  call void @__clang_call_terminate(ptr %31) #29
  unreachable

_ZNSt8functionIFbRKN10open_spiel5chess4MoveEEED2Ev.exit7: ; preds = %24, %27
  resume { ptr, i32 } %25
}